; Function Attrs: mustprogress nofree nounwind memory(write, argmem: readwrite) uwtable
define internal void @_ZN2cvL17batchDistL2_8u32fEPKhS1_miiPfS1_(ptr nocapture noundef readonly %0, ptr nocapture noundef readonly %1, i64 noundef %2, i32 noundef %3, i32 noundef %4, ptr nocapture noundef writeonly %5, ptr noundef readonly %6) #5 {
  %.not.i = icmp eq ptr %6, null
  %8 = icmp sgt i32 %3, 0
  br i1 %.not.i, label %.preheader.i, label %.preheader36.i

.preheader36.i:                                   ; preds = %7
  br i1 %8, label %.lr.ph.i, label %_ZN2cv12batchDistL2_IhfEEvPKT_S3_miiPT0_PKh.exit

.lr.ph.i:                                         ; preds = %.preheader36.i
  %9 = icmp sgt i32 %4, 0
  %wide.trip.count.i29.i = zext nneg i32 %4 to i64
  %wide.trip.count50.i = zext nneg i32 %3 to i64
  br i1 %9, label %.lr.ph.split.us.i, label %.lr.ph.split.i

.lr.ph.split.us.i:                                ; preds = %.lr.ph.i, %23
  %indvars.iv47.i = phi i64 [ %indvars.iv.next48.i, %23 ], [ 0, %.lr.ph.i ]
  %10 = getelementptr inbounds i8, ptr %6, i64 %indvars.iv47.i
  %11 = load i8, ptr %10, align 1
  %.not26.us.i = icmp eq i8 %11, 0
  br i1 %.not26.us.i, label %23, label %.lr.ph.preheader.i28.us.i

.lr.ph.preheader.i28.us.i:                        ; preds = %.lr.ph.split.us.i
  %12 = mul i64 %indvars.iv47.i, %2
  %13 = getelementptr inbounds i8, ptr %1, i64 %12
  br label %.lr.ph.i30.us.i

.lr.ph.i30.us.i:                                  ; preds = %.lr.ph.i30.us.i, %.lr.ph.preheader.i28.us.i
  %indvars.iv.i31.us.i = phi i64 [ 0, %.lr.ph.preheader.i28.us.i ], [ %indvars.iv.next.i33.us.i, %.lr.ph.i30.us.i ]
  %.012.i32.us.i = phi float [ 0.000000e+00, %.lr.ph.preheader.i28.us.i ], [ %22, %.lr.ph.i30.us.i ]
  %14 = getelementptr inbounds i8, ptr %0, i64 %indvars.iv.i31.us.i
  %15 = load i8, ptr %14, align 1
  %16 = zext i8 %15 to i32
  %17 = getelementptr inbounds i8, ptr %13, i64 %indvars.iv.i31.us.i
  %18 = load i8, ptr %17, align 1
  %19 = zext i8 %18 to i32
  %20 = sub nsw i32 %16, %19
  %21 = sitofp i32 %20 to float
  %22 = tail call float @llvm.fmuladd.f32(float %21, float %21, float %.012.i32.us.i)
  %indvars.iv.next.i33.us.i = add nuw nsw i64 %indvars.iv.i31.us.i, 1
  %exitcond.not.i34.us.i = icmp eq i64 %indvars.iv.next.i33.us.i, %wide.trip.count.i29.i
  br i1 %exitcond.not.i34.us.i, label %_ZN2cvL9normL2SqrIhfEET0_PKT_S4_i.exit35.loopexit.us.i, label %.lr.ph.i30.us.i, !llvm.loop !42

23:                                               ; preds = %_ZN2cvL9normL2SqrIhfEET0_PKT_S4_i.exit35.loopexit.us.i, %.lr.ph.split.us.i
  %24 = phi float [ %26, %_ZN2cvL9normL2SqrIhfEET0_PKT_S4_i.exit35.loopexit.us.i ], [ 0x47EFFFFFE0000000, %.lr.ph.split.us.i ]
  %25 = getelementptr inbounds float, ptr %5, i64 %indvars.iv47.i
  store float %24, ptr %25, align 4
  %indvars.iv.next48.i = add nuw nsw i64 %indvars.iv47.i, 1
  %exitcond51.not.i = icmp eq i64 %indvars.iv.next48.i, %wide.trip.count50.i
  br i1 %exitcond51.not.i, label %_ZN2cv12batchDistL2_IhfEEvPKT_S3_miiPT0_PKh.exit, label %.lr.ph.split.us.i, !llvm.loop !45

_ZN2cvL9normL2SqrIhfEET0_PKT_S4_i.exit35.loopexit.us.i: ; preds = %.lr.ph.i30.us.i
  %26 = tail call noundef float @sqrtf(float noundef %22) #14
  br label %23

.preheader.i:                                     ; preds = %7
  br i1 %8, label %.lr.ph41.i, label %_ZN2cv12batchDistL2_IhfEEvPKT_S3_miiPT0_PKh.exit

.lr.ph41.i:                                       ; preds = %.preheader.i
  %27 = icmp sgt i32 %4, 0
  %wide.trip.count.i.i = zext nneg i32 %4 to i64
  %wide.trip.count58.i = zext nneg i32 %3 to i64
  br i1 %27, label %.lr.ph.preheader.i.us.i, label %_ZN2cvL9normL2SqrIhfEET0_PKT_S4_i.exit.preheader.i

_ZN2cvL9normL2SqrIhfEET0_PKT_S4_i.exit.preheader.i: ; preds = %.lr.ph41.i
  %28 = shl nuw nsw i64 %wide.trip.count58.i, 2
  tail call void @llvm.memset.p0.i64(ptr align 4 %5, i8 0, i64 %28, i1 false)
  br label %_ZN2cv12batchDistL2_IhfEEvPKT_S3_miiPT0_PKh.exit

.lr.ph.preheader.i.us.i:                          ; preds = %.lr.ph41.i, %_ZN2cvL9normL2SqrIhfEET0_PKT_S4_i.exit.loopexit.us.i
  %indvars.iv55.i = phi i64 [ %indvars.iv.next56.i, %_ZN2cvL9normL2SqrIhfEET0_PKT_S4_i.exit.loopexit.us.i ], [ 0, %.lr.ph41.i ]
  %29 = mul i64 %indvars.iv55.i, %2
  %30 = getelementptr inbounds i8, ptr %1, i64 %29
  br label %.lr.ph.i.us.i

.lr.ph.i.us.i:                                    ; preds = %.lr.ph.i.us.i, %.lr.ph.preheader.i.us.i
  %indvars.iv.i.us.i = phi i64 [ 0, %.lr.ph.preheader.i.us.i ], [ %indvars.iv.next.i.us.i, %.lr.ph.i.us.i ]
  %.012.i.us.i = phi float [ 0.000000e+00, %.lr.ph.preheader.i.us.i ], [ %39, %.lr.ph.i.us.i ]
  %31 = getelementptr inbounds i8, ptr %0, i64 %indvars.iv.i.us.i
  %32 = load i8, ptr %31, align 1
  %33 = zext i8 %32 to i32
  %34 = getelementptr inbounds i8, ptr %30, i64 %indvars.iv.i.us.i
  %35 = load i8, ptr %34, align 1
  %36 = zext i8 %35 to i32
  %37 = sub nsw i32 %33, %36
  %38 = sitofp i32 %37 to float
  %39 = tail call float @llvm.fmuladd.f32(float %38, float %38, float %.012.i.us.i)
  %indvars.iv.next.i.us.i = add nuw nsw i64 %indvars.iv.i.us.i, 1
  %exitcond.not.i.us.i = icmp eq i64 %indvars.iv.next.i.us.i, %wide.trip.count.i.i
  br i1 %exitcond.not.i.us.i, label %_ZN2cvL9normL2SqrIhfEET0_PKT_S4_i.exit.loopexit.us.i, label %.lr.ph.i.us.i, !llvm.loop !42

_ZN2cvL9normL2SqrIhfEET0_PKT_S4_i.exit.loopexit.us.i: ; preds = %.lr.ph.i.us.i
  %40 = tail call noundef float @sqrtf(float noundef %39) #14
  %41 = getelementptr inbounds float, ptr %5, i64 %indvars.iv55.i
  store float %40, ptr %41, align 4
  %indvars.iv.next56.i = add nuw nsw i64 %indvars.iv55.i, 1
  %exitcond59.not.i = icmp eq i64 %indvars.iv.next56.i, %wide.trip.count58.i
  br i1 %exitcond59.not.i, label %_ZN2cv12batchDistL2_IhfEEvPKT_S3_miiPT0_PKh.exit, label %.lr.ph.preheader.i.us.i, !llvm.loop !46

.lr.ph.split.i:                                   ; preds = %.lr.ph.i, %.lr.ph.split.i
  %indvars.iv.i = phi i64 [ %indvars.iv.next.i, %.lr.ph.split.i ], [ 0, %.lr.ph.i ]
  %42 = getelementptr inbounds i8, ptr %6, i64 %indvars.iv.i
  %43 = load i8, ptr %42, align 1
  %.not26.i = icmp eq i8 %43, 0
  %44 = select i1 %.not26.i, float 0x47EFFFFFE0000000, float 0.000000e+00
  %45 = getelementptr inbounds float, ptr %5, i64 %indvars.iv.i
  store float %44, ptr %45, align 4
  %indvars.iv.next.i = add nuw nsw i64 %indvars.iv.i, 1
  %exitcond.not.i = icmp eq i64 %indvars.iv.next.i, %wide.trip.count50.i
  br i1 %exitcond.not.i, label %_ZN2cv12batchDistL2_IhfEEvPKT_S3_miiPT0_PKh.exit, label %.lr.ph.split.i, !llvm.loop !45

_ZN2cv12batchDistL2_IhfEEvPKT_S3_miiPT0_PKh.exit: ; preds = %.lr.ph.split.i, %23, %_ZN2cvL9normL2SqrIhfEET0_PKT_S4_i.exit.loopexit.us.i, %.preheader36.i, %.preheader.i, %_ZN2cvL9normL2SqrIhfEET0_PKT_S4_i.exit.preheader.i
  ret void
}